; Function Attrs: nofree norecurse nosync nounwind memory(read, argmem: readwrite, inaccessiblemem: none) uwtable
define void @DenseGETRS(ptr noundef readonly captures(none) %0, ptr noundef readonly captures(none) %1, ptr noundef captures(none) %2) local_unnamed_addr #1 {
  %4 = getelementptr inbounds nuw i8, ptr %0, i64 72
  %5 = load ptr, ptr %4, align 8, !tbaa !3
  %6 = getelementptr inbounds nuw i8, ptr %0, i64 16
  %7 = load i64, ptr %6, align 8, !tbaa !13
  %8 = icmp sgt i64 %7, 0
  br i1 %8, label %.lr.ph.i, label %denseGETRS.exit

.preheader55.i:                                   ; preds = %17
  %9 = add nsw i64 %7, -1
  %.not68.i = icmp eq i64 %7, 1
  br i1 %.not68.i, label %denseGETRS.exit, label %.lr.ph58.i

.lr.ph.i:                                         ; preds = %3, %17
  %.05056.i = phi i64 [ %18, %17 ], [ 0, %3 ]
  %10 = getelementptr inbounds nuw i64, ptr %1, i64 %.05056.i
  %11 = load i64, ptr %10, align 8, !tbaa !20
  %.not.i = icmp eq i64 %11, %.05056.i
  br i1 %.not.i, label %17, label %12

12:                                               ; preds = %.lr.ph.i
  %13 = getelementptr inbounds nuw double, ptr %2, i64 %.05056.i
  %14 = load double, ptr %13, align 8, !tbaa !17
  %15 = getelementptr inbounds double, ptr %2, i64 %11
  %16 = load double, ptr %15, align 8, !tbaa !17
  store double %16, ptr %13, align 8, !tbaa !17
  store double %14, ptr %15, align 8, !tbaa !17
  br label %17

17:                                               ; preds = %12, %.lr.ph.i
  %18 = add nuw nsw i64 %.05056.i, 1
  %exitcond.not.i = icmp eq i64 %18, %7
  br i1 %exitcond.not.i, label %.preheader55.i, label %.lr.ph.i, !llvm.loop !25

.loopexit.i:                                      ; preds = %23
  %exitcond65.not.i = icmp eq i64 %21, %9
  br i1 %exitcond65.not.i, label %.lr.ph63.i, label %.lr.ph58.i, !llvm.loop !26

.lr.ph58.i:                                       ; preds = %.preheader55.i, %.loopexit.i
  %.15159.i = phi i64 [ %21, %.loopexit.i ], [ 0, %.preheader55.i ]
  %19 = getelementptr inbounds nuw ptr, ptr %5, i64 %.15159.i
  %20 = load ptr, ptr %19, align 8, !tbaa !16
  %21 = add nuw nsw i64 %.15159.i, 1
  %22 = getelementptr inbounds nuw double, ptr %2, i64 %.15159.i
  br label %23

23:                                               ; preds = %23, %.lr.ph58.i
  %.057.i = phi i64 [ %21, %.lr.ph58.i ], [ %31, %23 ]
  %24 = getelementptr inbounds nuw double, ptr %20, i64 %.057.i
  %25 = load double, ptr %24, align 8, !tbaa !17
  %26 = load double, ptr %22, align 8, !tbaa !17
  %27 = getelementptr inbounds nuw double, ptr %2, i64 %.057.i
  %28 = load double, ptr %27, align 8, !tbaa !17
  %29 = fneg double %25
  %30 = tail call double @llvm.fmuladd.f64(double %29, double %26, double %28)
  store double %30, ptr %27, align 8, !tbaa !17
  %31 = add nuw nsw i64 %.057.i, 1
  %exitcond64.not.i = icmp eq i64 %31, %7
  br i1 %exitcond64.not.i, label %.loopexit.i, label %23, !llvm.loop !27

.lr.ph63.i:                                       ; preds = %.loopexit.i, %48
  %.262.i = phi i64 [ %49, %48 ], [ %9, %.loopexit.i ]
  %32 = getelementptr inbounds nuw ptr, ptr %5, i64 %.262.i
  %33 = load ptr, ptr %32, align 8, !tbaa !16
  %34 = getelementptr inbounds nuw double, ptr %33, i64 %.262.i
  %35 = load double, ptr %34, align 8, !tbaa !17
  %36 = getelementptr inbounds nuw double, ptr %2, i64 %.262.i
  %37 = load double, ptr %36, align 8, !tbaa !17
  %38 = fdiv double %37, %35
  store double %38, ptr %36, align 8, !tbaa !17
  br label %39

39:                                               ; preds = %39, %.lr.ph63.i
  %.161.i = phi i64 [ 0, %.lr.ph63.i ], [ %47, %39 ]
  %40 = getelementptr inbounds nuw double, ptr %33, i64 %.161.i
  %41 = load double, ptr %40, align 8, !tbaa !17
  %42 = load double, ptr %36, align 8, !tbaa !17
  %43 = getelementptr inbounds nuw double, ptr %2, i64 %.161.i
  %44 = load double, ptr %43, align 8, !tbaa !17
  %45 = fneg double %41
  %46 = tail call double @llvm.fmuladd.f64(double %45, double %42, double %44)
  store double %46, ptr %43, align 8, !tbaa !17
  %47 = add nuw nsw i64 %.161.i, 1
  %exitcond66.not.i = icmp eq i64 %47, %.262.i
  br i1 %exitcond66.not.i, label %48, label %39, !llvm.loop !28

48:                                               ; preds = %39
  %49 = add nsw i64 %.262.i, -1
  %50 = icmp sgt i64 %.262.i, 1
  br i1 %50, label %.lr.ph63.i, label %denseGETRS.exit, !llvm.loop !29

denseGETRS.exit:                                  ; preds = %48, %3, %.preheader55.i
  %51 = load ptr, ptr %5, align 8, !tbaa !16
  %52 = load double, ptr %51, align 8, !tbaa !17
  %53 = load double, ptr %2, align 8, !tbaa !17
  %54 = fdiv double %53, %52
  store double %54, ptr %2, align 8, !tbaa !17
  ret void
}